; Function Attrs: mustprogress nofree norecurse nosync nounwind willreturn memory(none) uwtable
define ptr @av_csp_luma_coeffs_from_avcsp(i32 noundef %0) local_unnamed_addr #0 {
  %2 = icmp ugt i32 %0, 17
  br i1 %2, label %7, label %3

3:                                                ; preds = %1
  %4 = zext nneg i32 %0 to i64
  %5 = getelementptr inbounds nuw [18 x %struct.AVLumaCoefficients], ptr @luma_coefficients, i64 0, i64 %4
  %6 = load i32, ptr %5, align 8, !tbaa !4
  %.not = icmp eq i32 %6, 0
  %. = select i1 %.not, ptr null, ptr %5
  br label %7

7:                                                ; preds = %3, %1
  %.0 = phi ptr [ null, %1 ], [ %., %3 ]
  ret ptr %.0
}